target datalayout = "e-m:e-p270:32:32-p271:32:32-p272:64:64-i64:64-i128:128-f80:128-n8:16:32:64-S128"
target triple = "x86_64-unknown-linux-gnu"

%struct.ObjectClass = type { ptr, ptr, [4 x ptr], [4 x ptr], ptr, ptr }
%struct.ChardevClass = type { %struct.ObjectClass, i8, i8, ptr, ptr, ptr, ptr, ptr, ptr, ptr, ptr, ptr, ptr, ptr, ptr, ptr, ptr, ptr, ptr }
%struct.DBusVCClass = type { %struct.DBusChardevClass, ptr }
%struct.DBusChardevClass = type { %struct.ChardevClass, ptr }

@.str = private unnamed_addr constant [18 x i8] c"../qemu/ui/dbus.c\00", align 1
@.str.30 = private unnamed_addr constant [11 x i8] c"chardev-vc\00", align 1
@__func__.DBUS_VC_CLASS = private unnamed_addr constant [14 x i8] c"DBUS_VC_CLASS\00", align 1
@.str.32 = private unnamed_addr constant [8 x i8] c"chardev\00", align 1
@.str.33 = private unnamed_addr constant [101 x i8] c"/home/dtcxzyw/WorkSpace/Projects/compilers/llvm-opt-benchmark/bench/qemu/qemu/include/chardev/char.h\00", align 1
@__func__.CHARDEV_CLASS = private unnamed_addr constant [14 x i8] c"CHARDEV_CLASS\00", align 1

; Function Attrs: nounwind sspstrong uwtable
define internal ptr @CHARDEV_CLASS(ptr noundef %klass) #0 {
entry:
  %klass.addr = alloca ptr, align 8
  store ptr %klass, ptr %klass.addr, align 8
  %0 = load ptr, ptr %klass.addr, align 8
  %call = call ptr @object_class_dynamic_cast_assert(ptr noundef %0, ptr noundef @.str.32, ptr noundef @.str.33, i32 noundef 231, ptr noundef @__func__.CHARDEV_CLASS)
  ret ptr %call
}

; Function Attrs: nounwind sspstrong uwtable
define internal ptr @DBUS_VC_CLASS(ptr noundef %klass) #0 {
entry:
  %klass.addr = alloca ptr, align 8
  store ptr %klass, ptr %klass.addr, align 8
  %0 = load ptr, ptr %klass.addr, align 8
  %call = call ptr @object_class_dynamic_cast_assert(ptr noundef %0, ptr noundef @.str.30, ptr noundef @.str, i32 noundef 423, ptr noundef @__func__.DBUS_VC_CLASS)
  ret ptr %call
}

; Function Attrs: nounwind sspstrong uwtable
define internal void @dbus_vc_class_init(ptr noundef %oc, ptr noundef %data) #0 {
entry:
  %oc.addr = alloca ptr, align 8
  %data.addr = alloca ptr, align 8
  %klass = alloca ptr, align 8
  %cc = alloca ptr, align 8
  store ptr %oc, ptr %oc.addr, align 8
  store ptr %data, ptr %data.addr, align 8
  %0 = load ptr, ptr %oc.addr, align 8
  %call = call ptr @DBUS_VC_CLASS(ptr noundef %0)
  store ptr %call, ptr %klass, align 8
  %1 = load ptr, ptr %oc.addr, align 8
  %call1 = call ptr @CHARDEV_CLASS(ptr noundef %1)
  store ptr %call1, ptr %cc, align 8
  %2 = load ptr, ptr %cc, align 8
  %parse = getelementptr inbounds %struct.ChardevClass, ptr %2, i32 0, i32 3
  %3 = load ptr, ptr %parse, align 8
  %4 = load ptr, ptr %klass, align 8
  %parent_parse = getelementptr inbounds %struct.DBusVCClass, ptr %4, i32 0, i32 1
  store ptr %3, ptr %parent_parse, align 8
  %5 = load ptr, ptr %cc, align 8
  %parse2 = getelementptr inbounds %struct.ChardevClass, ptr %5, i32 0, i32 3
  store ptr @dbus_vc_parse, ptr %parse2, align 8
  ret void
}