; Function Attrs: nounwind sspstrong uwtable
define internal void @dbus_vc_class_init(ptr noundef %oc, ptr readnone captures(none) %data) #0 {
entry:
  %call.i = tail call ptr @object_class_dynamic_cast_assert(ptr noundef %oc, ptr noundef nonnull @.str.30, ptr noundef nonnull @.str, i32 noundef 423, ptr noundef nonnull @__func__.DBUS_VC_CLASS) #5
  %call.i3 = tail call ptr @object_class_dynamic_cast_assert(ptr noundef %oc, ptr noundef nonnull @.str.32, ptr noundef nonnull @.str.33, i32 noundef 231, ptr noundef nonnull @__func__.CHARDEV_CLASS) #5
  %parse = getelementptr inbounds nuw i8, ptr %call.i3, i64 104
  %0 = load ptr, ptr %parse, align 8
  %parent_parse = getelementptr inbounds nuw i8, ptr %call.i, i64 240
  store ptr %0, ptr %parent_parse, align 8
  store ptr @dbus_vc_parse, ptr %parse, align 8
  ret void
}